target datalayout = "e-m:e-p270:32:32-p271:32:32-p272:64:64-i64:64-i128:128-f80:128-n8:16:32:64-S128"
target triple = "x86_64-pc-linux-gnu"

%"class.llvm::SmallPtrSetImplBase.base" = type <{ ptr, ptr, i32, i32, i32 }>
%"class.llvm::TargetLoweringObjectFileELF" = type <{ %"class.llvm::TargetLoweringObjectFile", i8, [3 x i8], i32, %"class.llvm::SmallPtrSet.0", i16, [6 x i8] }>
%"class.llvm::TargetLoweringObjectFile" = type { %"class.llvm::MCObjectFileInfo", ptr, i8, i8, i8, i8, i32, i32, i32, i32, ptr, ptr, ptr }
%"class.llvm::MCObjectFileInfo" = type { ptr, i8, i8, i8, i32, i32, ptr, ptr, ptr, ptr, ptr, ptr, ptr, ptr, ptr, ptr, ptr, ptr, ptr, ptr, ptr, ptr, ptr, ptr, ptr, ptr, ptr, ptr, ptr, ptr, ptr, ptr, ptr, ptr, ptr, ptr, ptr, ptr, ptr, ptr, ptr, ptr, ptr, ptr, ptr, ptr, ptr, ptr, ptr, ptr, ptr, ptr, ptr, ptr, ptr, ptr, ptr, ptr, ptr, ptr, ptr, ptr, ptr, ptr, ptr, ptr, ptr, ptr, ptr, ptr, ptr, ptr, ptr, ptr, ptr, ptr, ptr, ptr, ptr, ptr, ptr, ptr, ptr, ptr, ptr, ptr, ptr, ptr, ptr, ptr, ptr, ptr, ptr, ptr, ptr, ptr, ptr, ptr, ptr, ptr, ptr, ptr, ptr, ptr, %"struct.std::array", i8, ptr }
%"struct.std::array" = type { [11 x ptr] }
%"class.llvm::SmallPtrSet.0" = type { %"class.llvm::SmallPtrSetImpl.base.2", [2 x ptr] }
%"class.llvm::SmallPtrSetImpl.base.2" = type { %"class.llvm::SmallPtrSetImplBase.base" }

; Function Attrs: mustprogress nounwind uwtable
define linkonce_odr hidden noundef nonnull align 8 dereferenceable(2432) ptr @_ZNK4llvm16MCObjectFileInfo10getContextEv(ptr noundef nonnull align 8 dereferenceable(912) %0) #1 comdat align 2 {
  %2 = alloca ptr, align 8
  store ptr %0, ptr %2, align 8
  %3 = load ptr, ptr %2, align 8
  %4 = getelementptr inbounds nuw %"class.llvm::MCObjectFileInfo", ptr %3, i32 0, i32 106
  %5 = load ptr, ptr %4, align 8
  ret ptr %5
}

; Function Attrs: mustprogress nounwind uwtable
define dso_local noundef ptr @_ZNK4llvm27TargetLoweringObjectFileELF20getStaticCtorSectionEjPKNS_8MCSymbolE(ptr noundef nonnull align 8 dereferenceable(1026) %0, i32 noundef %1, ptr noundef %2) unnamed_addr #1 align 2 {
  %4 = alloca ptr, align 8
  %5 = alloca i32, align 4
  %6 = alloca ptr, align 8
  store ptr %0, ptr %4, align 8
  store i32 %1, ptr %5, align 4
  store ptr %2, ptr %6, align 8
  %7 = load ptr, ptr %4, align 8
  %8 = call noundef nonnull align 8 dereferenceable(2432) ptr @_ZNK4llvm16MCObjectFileInfo10getContextEv(ptr noundef nonnull align 8 dereferenceable(912) %7)
  %9 = getelementptr inbounds nuw %"class.llvm::TargetLoweringObjectFileELF", ptr %7, i32 0, i32 1
  %10 = load i8, ptr %9, align 8
  %11 = trunc i8 %10 to i1
  %12 = load i32, ptr %5, align 4
  %13 = load ptr, ptr %6, align 8
  %14 = call noundef ptr @_ZL24getStaticStructorSectionRN4llvm9MCContextEbbjPKNS_8MCSymbolE(ptr noundef nonnull align 8 dereferenceable(2432) %8, i1 noundef zeroext %11, i1 noundef zeroext true, i32 noundef %12, ptr noundef %13)
  ret ptr %14
}