; Function Attrs: mustprogress nounwind uwtable
define dso_local noundef ptr @_ZNK4llvm27TargetLoweringObjectFileELF20getStaticCtorSectionEjPKNS_8MCSymbolE(ptr nocapture noundef nonnull readonly align 8 dereferenceable(1026) %0, i32 noundef %1, ptr noundef %2) unnamed_addr #0 align 2 {
  %4 = getelementptr inbounds nuw i8, ptr %0, i64 904
  %5 = load ptr, ptr %4, align 8
  %6 = getelementptr inbounds nuw i8, ptr %0, i64 968
  %7 = load i8, ptr %6, align 8
  %8 = trunc i8 %7 to i1
  %9 = tail call fastcc noundef ptr @_ZL24getStaticStructorSectionRN4llvm9MCContextEbbjPKNS_8MCSymbolE(ptr noundef nonnull align 8 dereferenceable(2432) %5, i1 noundef zeroext %8, i1 noundef zeroext true, i32 noundef %1, ptr noundef %2)
  ret ptr %9
}